target datalayout = "e-m:e-p270:32:32-p271:32:32-p272:64:64-i64:64-i128:128-f80:128-n8:16:32:64-S128"
target triple = "x86_64-pc-linux-gnu"

%struct.FT_MemoryRec_ = type { ptr, ptr, ptr, ptr }

; Function Attrs: nounwind uwtable
define hidden void @ft_mem_free(ptr noundef %0, ptr noundef %1) #0 {
  %3 = alloca ptr, align 8
  %4 = alloca ptr, align 8
  store ptr %0, ptr %3, align 8, !tbaa !185
  store ptr %1, ptr %4, align 8, !tbaa !41
  %5 = load ptr, ptr %4, align 8, !tbaa !41
  %6 = icmp ne ptr %5, null
  br i1 %6, label %7, label %13

7:                                                ; preds = %2
  %8 = load ptr, ptr %3, align 8, !tbaa !185
  %9 = getelementptr inbounds nuw %struct.FT_MemoryRec_, ptr %8, i32 0, i32 2
  %10 = load ptr, ptr %9, align 8, !tbaa !209
  %11 = load ptr, ptr %3, align 8, !tbaa !185
  %12 = load ptr, ptr %4, align 8, !tbaa !41
  call void %10(ptr noundef %11, ptr noundef %12)
  br label %13

13:                                               ; preds = %7, %2
  ret void
}