; Function Attrs: nounwind uwtable
define hidden void @ft_mem_free(ptr noundef %0, ptr noundef %1) local_unnamed_addr #0 {
  %.not = icmp eq ptr %1, null
  br i1 %.not, label %6, label %3

3:                                                ; preds = %2
  %4 = getelementptr inbounds nuw i8, ptr %0, i64 16
  %5 = load ptr, ptr %4, align 8, !tbaa !61
  tail call void %5(ptr noundef %0, ptr noundef nonnull %1) #34
  br label %6

6:                                                ; preds = %3, %2
  ret void
}